;--------------------------------------------------------
; File Created by SDCC : FreeWare ANSI-C Compiler
; Version 2.6.0 #4309 (Jul 28 2006)
; This file generated Wed Oct 22 16:24:18 2014
;--------------------------------------------------------
	.module main
	.optsdcc -mmcs51 --model-large
	
;--------------------------------------------------------
; Public variables in this module
;--------------------------------------------------------
	.globl _isr_zero
	.globl _main
	.globl _TF1
	.globl _TR1
	.globl _TF0
	.globl _TR0
	.globl _IE1
	.globl _IT1
	.globl _IE0
	.globl _IT0
	.globl _SM0
	.globl _SM1
	.globl _SM2
	.globl _REN
	.globl _TB8
	.globl _RB8
	.globl _TI
	.globl _RI
	.globl _CY
	.globl _AC
	.globl _F0
	.globl _RS1
	.globl _RS0
	.globl _OV
	.globl _F1
	.globl _P
	.globl _RD
	.globl _WR
	.globl _T1
	.globl _T0
	.globl _INT1
	.globl _INT0
	.globl _TXD0
	.globl _TXD
	.globl _RXD0
	.globl _RXD
	.globl _P3_7
	.globl _P3_6
	.globl _P3_5
	.globl _P3_4
	.globl _P3_3
	.globl _P3_2
	.globl _P3_1
	.globl _P3_0
	.globl _P2_7
	.globl _P2_6
	.globl _P2_5
	.globl _P2_4
	.globl _P2_3
	.globl _P2_2
	.globl _P2_1
	.globl _P2_0
	.globl _P1_7
	.globl _P1_6
	.globl _P1_5
	.globl _P1_4
	.globl _P1_3
	.globl _P1_2
	.globl _P1_1
	.globl _P1_0
	.globl _P0_7
	.globl _P0_6
	.globl _P0_5
	.globl _P0_4
	.globl _P0_3
	.globl _P0_2
	.globl _P0_1
	.globl _P0_0
	.globl _PS
	.globl _PT1
	.globl _PX1
	.globl _PT0
	.globl _PX0
	.globl _EA
	.globl _ES
	.globl _ET1
	.globl _EX1
	.globl _ET0
	.globl _EX0
	.globl _BREG_F7
	.globl _BREG_F6
	.globl _BREG_F5
	.globl _BREG_F4
	.globl _BREG_F3
	.globl _BREG_F2
	.globl _BREG_F1
	.globl _BREG_F0
	.globl _P5_7
	.globl _P5_6
	.globl _P5_5
	.globl _P5_4
	.globl _P5_3
	.globl _P5_2
	.globl _P5_1
	.globl _P5_0
	.globl _P4_7
	.globl _P4_6
	.globl _P4_5
	.globl _P4_4
	.globl _P4_3
	.globl _P4_2
	.globl _P4_1
	.globl _P4_0
	.globl _PX0L
	.globl _PT0L
	.globl _PX1L
	.globl _PT1L
	.globl _PLS
	.globl _PT2L
	.globl _PPCL
	.globl _EC
	.globl _CCF0
	.globl _CCF1
	.globl _CCF2
	.globl _CCF3
	.globl _CCF4
	.globl _CR
	.globl _CF
	.globl _TF2
	.globl _EXF2
	.globl _RCLK
	.globl _TCLK
	.globl _EXEN2
	.globl _TR2
	.globl _C_T2
	.globl _CP_RL2
	.globl _T2CON_7
	.globl _T2CON_6
	.globl _T2CON_5
	.globl _T2CON_4
	.globl _T2CON_3
	.globl _T2CON_2
	.globl _T2CON_1
	.globl _T2CON_0
	.globl _PT2
	.globl _ET2
	.globl _CKCON0
	.globl _TMOD
	.globl _TL1
	.globl _TL0
	.globl _TH1
	.globl _TH0
	.globl _TCON
	.globl _SP
	.globl _SCON
	.globl _SBUF0
	.globl _SBUF
	.globl _PSW
	.globl _PCON
	.globl _P3
	.globl _P2
	.globl _P1
	.globl _P0
	.globl _IP
	.globl _IE
	.globl _DP0L
	.globl _DPL
	.globl _DP0H
	.globl _DPH
	.globl _B
	.globl _ACC
	.globl _EECON
	.globl _KBF
	.globl _KBE
	.globl _KBLS
	.globl _BRL
	.globl _BDRCON
	.globl _T2MOD
	.globl _SPDAT
	.globl _SPSTA
	.globl _SPCON
	.globl _SADEN
	.globl _SADDR
	.globl _WDTPRG
	.globl _WDTRST
	.globl _P5
	.globl _P4
	.globl _IPH1
	.globl _IPL1
	.globl _IPH0
	.globl _IPL0
	.globl _IEN1
	.globl _IEN0
	.globl _CMOD
	.globl _CL
	.globl _CH
	.globl _CCON
	.globl _CCAPM4
	.globl _CCAPM3
	.globl _CCAPM2
	.globl _CCAPM1
	.globl _CCAPM0
	.globl _CCAP4L
	.globl _CCAP3L
	.globl _CCAP2L
	.globl _CCAP1L
	.globl _CCAP0L
	.globl _CCAP4H
	.globl _CCAP3H
	.globl _CCAP2H
	.globl _CCAP1H
	.globl _CCAP0H
	.globl _CKCKON1
	.globl _CKCKON0
	.globl _CKRL
	.globl _AUXR1
	.globl _AUXR
	.globl _TH2
	.globl _TL2
	.globl _RCAP2H
	.globl _RCAP2L
	.globl _T2CON
	.globl _init
	.globl _init_high
	.globl _getchar
	.globl _putchar
;--------------------------------------------------------
; special function registers
;--------------------------------------------------------
	.area RSEG    (DATA)
_T2CON	=	0x00c8
_RCAP2L	=	0x00ca
_RCAP2H	=	0x00cb
_TL2	=	0x00cc
_TH2	=	0x00cd
_AUXR	=	0x008e
_AUXR1	=	0x00a2
_CKRL	=	0x0097
_CKCKON0	=	0x008f
_CKCKON1	=	0x008f
_CCAP0H	=	0x00fa
_CCAP1H	=	0x00fb
_CCAP2H	=	0x00fc
_CCAP3H	=	0x00fd
_CCAP4H	=	0x00fe
_CCAP0L	=	0x00ea
_CCAP1L	=	0x00eb
_CCAP2L	=	0x00ec
_CCAP3L	=	0x00ed
_CCAP4L	=	0x00ee
_CCAPM0	=	0x00da
_CCAPM1	=	0x00db
_CCAPM2	=	0x00dc
_CCAPM3	=	0x00dd
_CCAPM4	=	0x00de
_CCON	=	0x00d8
_CH	=	0x00f9
_CL	=	0x00e9
_CMOD	=	0x00d9
_IEN0	=	0x00a8
_IEN1	=	0x00b1
_IPL0	=	0x00b8
_IPH0	=	0x00b7
_IPL1	=	0x00b2
_IPH1	=	0x00b3
_P4	=	0x00c0
_P5	=	0x00d8
_WDTRST	=	0x00a6
_WDTPRG	=	0x00a7
_SADDR	=	0x00a9
_SADEN	=	0x00b9
_SPCON	=	0x00c3
_SPSTA	=	0x00c4
_SPDAT	=	0x00c5
_T2MOD	=	0x00c9
_BDRCON	=	0x009b
_BRL	=	0x009a
_KBLS	=	0x009c
_KBE	=	0x009d
_KBF	=	0x009e
_EECON	=	0x00d2
_ACC	=	0x00e0
_B	=	0x00f0
_DPH	=	0x0083
_DP0H	=	0x0083
_DPL	=	0x0082
_DP0L	=	0x0082
_IE	=	0x00a8
_IP	=	0x00b8
_P0	=	0x0080
_P1	=	0x0090
_P2	=	0x00a0
_P3	=	0x00b0
_PCON	=	0x0087
_PSW	=	0x00d0
_SBUF	=	0x0099
_SBUF0	=	0x0099
_SCON	=	0x0098
_SP	=	0x0081
_TCON	=	0x0088
_TH0	=	0x008c
_TH1	=	0x008d
_TL0	=	0x008a
_TL1	=	0x008b
_TMOD	=	0x0089
_CKCON0	=	0x008f
;--------------------------------------------------------
; special function bits
;--------------------------------------------------------
	.area RSEG    (DATA)
_ET2	=	0x00ad
_PT2	=	0x00bd
_T2CON_0	=	0x00c8
_T2CON_1	=	0x00c9
_T2CON_2	=	0x00ca
_T2CON_3	=	0x00cb
_T2CON_4	=	0x00cc
_T2CON_5	=	0x00cd
_T2CON_6	=	0x00ce
_T2CON_7	=	0x00cf
_CP_RL2	=	0x00c8
_C_T2	=	0x00c9
_TR2	=	0x00ca
_EXEN2	=	0x00cb
_TCLK	=	0x00cc
_RCLK	=	0x00cd
_EXF2	=	0x00ce
_TF2	=	0x00cf
_CF	=	0x00df
_CR	=	0x00de
_CCF4	=	0x00dc
_CCF3	=	0x00db
_CCF2	=	0x00da
_CCF1	=	0x00d9
_CCF0	=	0x00d8
_EC	=	0x00ae
_PPCL	=	0x00be
_PT2L	=	0x00bd
_PLS	=	0x00bc
_PT1L	=	0x00bb
_PX1L	=	0x00ba
_PT0L	=	0x00b9
_PX0L	=	0x00b8
_P4_0	=	0x00c0
_P4_1	=	0x00c1
_P4_2	=	0x00c2
_P4_3	=	0x00c3
_P4_4	=	0x00c4
_P4_5	=	0x00c5
_P4_6	=	0x00c6
_P4_7	=	0x00c7
_P5_0	=	0x00d8
_P5_1	=	0x00d9
_P5_2	=	0x00da
_P5_3	=	0x00db
_P5_4	=	0x00dc
_P5_5	=	0x00dd
_P5_6	=	0x00de
_P5_7	=	0x00df
_BREG_F0	=	0x00f0
_BREG_F1	=	0x00f1
_BREG_F2	=	0x00f2
_BREG_F3	=	0x00f3
_BREG_F4	=	0x00f4
_BREG_F5	=	0x00f5
_BREG_F6	=	0x00f6
_BREG_F7	=	0x00f7
_EX0	=	0x00a8
_ET0	=	0x00a9
_EX1	=	0x00aa
_ET1	=	0x00ab
_ES	=	0x00ac
_EA	=	0x00af
_PX0	=	0x00b8
_PT0	=	0x00b9
_PX1	=	0x00ba
_PT1	=	0x00bb
_PS	=	0x00bc
_P0_0	=	0x0080
_P0_1	=	0x0081
_P0_2	=	0x0082
_P0_3	=	0x0083
_P0_4	=	0x0084
_P0_5	=	0x0085
_P0_6	=	0x0086
_P0_7	=	0x0087
_P1_0	=	0x0090
_P1_1	=	0x0091
_P1_2	=	0x0092
_P1_3	=	0x0093
_P1_4	=	0x0094
_P1_5	=	0x0095
_P1_6	=	0x0096
_P1_7	=	0x0097
_P2_0	=	0x00a0
_P2_1	=	0x00a1
_P2_2	=	0x00a2
_P2_3	=	0x00a3
_P2_4	=	0x00a4
_P2_5	=	0x00a5
_P2_6	=	0x00a6
_P2_7	=	0x00a7
_P3_0	=	0x00b0
_P3_1	=	0x00b1
_P3_2	=	0x00b2
_P3_3	=	0x00b3
_P3_4	=	0x00b4
_P3_5	=	0x00b5
_P3_6	=	0x00b6
_P3_7	=	0x00b7
_RXD	=	0x00b0
_RXD0	=	0x00b0
_TXD	=	0x00b1
_TXD0	=	0x00b1
_INT0	=	0x00b2
_INT1	=	0x00b3
_T0	=	0x00b4
_T1	=	0x00b5
_WR	=	0x00b6
_RD	=	0x00b7
_P	=	0x00d0
_F1	=	0x00d1
_OV	=	0x00d2
_RS0	=	0x00d3
_RS1	=	0x00d4
_F0	=	0x00d5
_AC	=	0x00d6
_CY	=	0x00d7
_RI	=	0x0098
_TI	=	0x0099
_RB8	=	0x009a
_TB8	=	0x009b
_REN	=	0x009c
_SM2	=	0x009d
_SM1	=	0x009e
_SM0	=	0x009f
_IT0	=	0x0088
_IE0	=	0x0089
_IT1	=	0x008a
_IE1	=	0x008b
_TR0	=	0x008c
_TF0	=	0x008d
_TR1	=	0x008e
_TF1	=	0x008f
;--------------------------------------------------------
; overlayable register banks
;--------------------------------------------------------
	.area REG_BANK_0	(REL,OVR,DATA)
	.ds 8
;--------------------------------------------------------
; internal ram data
;--------------------------------------------------------
	.area DSEG    (DATA)
_main_sloc0_1_0:
	.ds 4
;--------------------------------------------------------
; overlayable items in internal ram 
;--------------------------------------------------------
	.area OSEG    (OVR,DATA)
;--------------------------------------------------------
; Stack segment in internal ram 
;--------------------------------------------------------
	.area	SSEG	(DATA)
__start__stack:
	.ds	1

;--------------------------------------------------------
; indirectly addressable internal ram data
;--------------------------------------------------------
	.area ISEG    (DATA)
;--------------------------------------------------------
; bit data
;--------------------------------------------------------
	.area BSEG    (BIT)
;--------------------------------------------------------
; paged external ram data
;--------------------------------------------------------
	.area PSEG    (PAG,XDATA)
;--------------------------------------------------------
; external ram data
;--------------------------------------------------------
	.area XSEG    (XDATA)
_main_f1_1_1:
	.ds 4
_putchar_c_1_1:
	.ds 1
;--------------------------------------------------------
; external initialized ram data
;--------------------------------------------------------
	.area XISEG   (XDATA)
	.area HOME    (CODE)
	.area GSINIT0 (CODE)
	.area GSINIT1 (CODE)
	.area GSINIT2 (CODE)
	.area GSINIT3 (CODE)
	.area GSINIT4 (CODE)
	.area GSINIT5 (CODE)
	.area GSINIT  (CODE)
	.area GSFINAL (CODE)
	.area CSEG    (CODE)
;--------------------------------------------------------
; interrupt vector 
;--------------------------------------------------------
	.area HOME    (CODE)
__interrupt_vect:
	ljmp	__sdcc_gsinit_startup
	ljmp	_isr_zero
;--------------------------------------------------------
; global & static initialisations
;--------------------------------------------------------
	.area HOME    (CODE)
	.area GSINIT  (CODE)
	.area GSFINAL (CODE)
	.area GSINIT  (CODE)
	.globl __sdcc_gsinit_startup
	.globl __sdcc_program_startup
	.globl __start__stack
	.globl __mcs51_genXINIT
	.globl __mcs51_genXRAMCLEAR
	.globl __mcs51_genRAMCLEAR
	.area GSFINAL (CODE)
	ljmp	__sdcc_program_startup
;--------------------------------------------------------
; Home
;--------------------------------------------------------
	.area HOME    (CODE)
	.area CSEG    (CODE)
__sdcc_program_startup:
	lcall	_main
;	return from main will lock up
	sjmp .
;--------------------------------------------------------
; code
;--------------------------------------------------------
	.area CSEG    (CODE)
;------------------------------------------------------------
;Allocation info for local variables in function 'main'
;------------------------------------------------------------
;sloc0                     Allocated with name '_main_sloc0_1_0'
;a                         Allocated with name '_main_a_1_1'
;b                         Allocated with name '_main_b_1_1'
;f1                        Allocated with name '_main_f1_1_1'
;------------------------------------------------------------
;	main.c:19: void main(void)
;	-----------------------------------------
;	 function main
;	-----------------------------------------
_main:
	ar2 = 0x02
	ar3 = 0x03
	ar4 = 0x04
	ar5 = 0x05
	ar6 = 0x06
	ar7 = 0x07
	ar0 = 0x00
	ar1 = 0x01
;	main.c:22: init();
;	genCall
	lcall	_init
;	main.c:23: TH1 = 0xFD;
;	genAssign
	mov	_TH1,#0xFD
;	main.c:24: TR1 = 1;
;	genAssign
	setb	_TR1
;	main.c:25: printf("Entered X1 mode a number\n\r");
;	genIpush
	mov	a,#__str_0
	push	acc
	mov	a,#(__str_0 >> 8)
	push	acc
	mov	a,#0x80
	push	acc
;	genCall
	lcall	_printf
	dec	sp
	dec	sp
	dec	sp
;	main.c:28: for(f1 = 1.5;f1<25;f1+=0.05)
;	genAssign
	mov	dptr,#_main_f1_1_1
;	Peephole 181	changed mov to clr
	clr	a
	movx	@dptr,a
	inc	dptr
;	Peephole 101	removed redundant mov
	movx	@dptr,a
	inc	dptr
	mov	a,#0xC0
	movx	@dptr,a
	inc	dptr
	mov	a,#0x3F
	movx	@dptr,a
00104$:
;	genAssign
	mov	dptr,#_main_f1_1_1
	movx	a,@dptr
	mov	r2,a
	inc	dptr
	movx	a,@dptr
	mov	r3,a
	inc	dptr
	movx	a,@dptr
	mov	r4,a
	inc	dptr
	movx	a,@dptr
	mov	r5,a
;	genIpush
	push	ar2
	push	ar3
	push	ar4
	push	ar5
;	Peephole 181	changed mov to clr
	clr	a
	push	acc
	push	acc
	mov	a,#0xC8
	push	acc
	mov	a,#0x41
	push	acc
;	genCall
	mov	dpl,r2
	mov	dph,r3
	mov	b,r4
	mov	a,r5
	lcall	___fslt
	mov	r6,dpl
	mov	a,sp
	add	a,#0xfc
	mov	sp,a
	pop	ar5
	pop	ar4
	pop	ar3
	pop	ar2
;	genIfx
	mov	a,r6
;	genIfxJump
	jnz	00120$
	ljmp	00107$
00120$:
;	main.c:30: P1 &= 0x00;
;	genDummyRead
	mov	a,_P1
;	genAssign
	mov	_P1,#0x00
;	main.c:31: a = (sqrtf(PI))/(2 * powf(f1,(3/2)));
;	genCall
;	Peephole 182.b	used 16 bit load of dptr
	mov	dptr,#0x0FDB
	mov	b,#0x49
	mov	a,#0x40
	push	ar2
	push	ar3
	push	ar4
	push	ar5
	lcall	_sqrtf
	mov	_main_sloc0_1_0,dpl
	mov	(_main_sloc0_1_0 + 1),dph
	mov	(_main_sloc0_1_0 + 2),b
	mov	(_main_sloc0_1_0 + 3),a
	pop	ar5
	pop	ar4
	pop	ar3
	pop	ar2
;	genAssign
	mov	dptr,#_powf_PARM_2
;	Peephole 181	changed mov to clr
	clr	a
	movx	@dptr,a
	inc	dptr
;	Peephole 101	removed redundant mov
	movx	@dptr,a
	inc	dptr
	mov	a,#0x80
	movx	@dptr,a
	inc	dptr
	mov	a,#0x3F
	movx	@dptr,a
;	genCall
	mov	dpl,r2
	mov	dph,r3
	mov	b,r4
	mov	a,r5
	push	ar2
	push	ar3
	push	ar4
	push	ar5
	lcall	_powf
	mov	r6,dpl
	mov	r7,dph
	mov	r0,b
	mov	r1,a
	pop	ar5
	pop	ar4
	pop	ar3
	pop	ar2
;	genIpush
	push	ar2
	push	ar3
	push	ar4
	push	ar5
;	Peephole 181	changed mov to clr
	clr	a
	push	acc
	push	acc
	push	acc
	mov	a,#0x40
	push	acc
;	genCall
	mov	dpl,r6
	mov	dph,r7
	mov	b,r0
	mov	a,r1
	lcall	___fsmul
	mov	r6,dpl
	mov	r7,dph
	mov	r0,b
	mov	r1,a
	mov	a,sp
	add	a,#0xfc
	mov	sp,a
	pop	ar5
	pop	ar4
	pop	ar3
	pop	ar2
;	genIpush
	push	ar2
	push	ar3
	push	ar4
	push	ar5
	push	ar6
	push	ar7
	push	ar0
	push	ar1
;	main.c:32: P1 |= 0x01;
;	genCall
	mov	dpl,_main_sloc0_1_0
	mov	dph,(_main_sloc0_1_0 + 1)
	mov	b,(_main_sloc0_1_0 + 2)
	mov	a,(_main_sloc0_1_0 + 3)
	lcall	___fsdiv
	mov	r6,dpl
	mov	r7,dph
	mov	r0,b
	mov	r1,a
	mov	a,sp
	add	a,#0xfc
	mov	sp,a
	pop	ar5
	pop	ar4
	pop	ar3
	pop	ar2
;	genOr
	orl	_P1,#0x01
;	main.c:33: printf_fast_f("The math operation gives us %f\n\r",a);
;	genIpush
	push	ar2
	push	ar3
	push	ar4
	push	ar5
	push	ar6
	push	ar7
	push	ar0
	push	ar1
;	genIpush
	mov	a,#__str_1
	push	acc
	mov	a,#(__str_1 >> 8)
	push	acc
;	genCall
	lcall	_printf_fast_f
	mov	a,sp
	add	a,#0xfa
	mov	sp,a
	pop	ar5
	pop	ar4
	pop	ar3
	pop	ar2
;	main.c:28: for(f1 = 1.5;f1<25;f1+=0.05)
;	genIpush
	mov	a,#0xCD
	push	acc
	mov	a,#0xCC
	push	acc
	mov	a,#0x4C
	push	acc
	mov	a,#0x3D
	push	acc
;	genCall
	mov	dpl,r2
	mov	dph,r3
	mov	b,r4
	mov	a,r5
	lcall	___fsadd
	mov	r2,dpl
	mov	r3,dph
	mov	r4,b
	mov	r5,a
	mov	a,sp
	add	a,#0xfc
	mov	sp,a
;	genAssign
	mov	dptr,#_main_f1_1_1
	mov	a,r2
	movx	@dptr,a
	inc	dptr
	mov	a,r3
	movx	@dptr,a
	inc	dptr
	mov	a,r4
	movx	@dptr,a
	inc	dptr
	mov	a,r5
	movx	@dptr,a
	ljmp	00104$
00107$:
;	main.c:36: printf("Provide an external interrupt INT0 to enter X2 mode\n\r");
;	genIpush
	mov	a,#__str_2
	push	acc
	mov	a,#(__str_2 >> 8)
	push	acc
	mov	a,#0x80
	push	acc
;	genCall
	lcall	_printf
	dec	sp
	dec	sp
	dec	sp
;	main.c:38: while(IE0 != 1);
00101$:
;	genIfx
;	genIfxJump
;	Peephole 108.d	removed ljmp by inverse jump logic
	jnb	_IE0,00101$
;	Peephole 300	removed redundant label 00121$
;	main.c:40: init_high();
;	genCall
	lcall	_init_high
;	main.c:41: printf("Entered X1 mode a number\n\r");
;	genIpush
	mov	a,#__str_0
	push	acc
	mov	a,#(__str_0 >> 8)
	push	acc
	mov	a,#0x80
	push	acc
;	genCall
	lcall	_printf
	dec	sp
	dec	sp
	dec	sp
;	main.c:42: for(f1=1.5;f1<25;f1+=0.05)
;	genAssign
	mov	dptr,#_main_f1_1_1
;	Peephole 181	changed mov to clr
	clr	a
	movx	@dptr,a
	inc	dptr
;	Peephole 101	removed redundant mov
	movx	@dptr,a
	inc	dptr
	mov	a,#0xC0
	movx	@dptr,a
	inc	dptr
	mov	a,#0x3F
	movx	@dptr,a
00108$:
;	genAssign
	mov	dptr,#_main_f1_1_1
	movx	a,@dptr
	mov	r2,a
	inc	dptr
	movx	a,@dptr
	mov	r3,a
	inc	dptr
	movx	a,@dptr
	mov	r4,a
	inc	dptr
	movx	a,@dptr
	mov	r5,a
;	genIpush
	push	ar2
	push	ar3
	push	ar4
	push	ar5
;	Peephole 181	changed mov to clr
	clr	a
	push	acc
	push	acc
	mov	a,#0xC8
	push	acc
	mov	a,#0x41
	push	acc
;	genCall
	mov	dpl,r2
	mov	dph,r3
	mov	b,r4
	mov	a,r5
	lcall	___fslt
	mov	r6,dpl
	mov	a,sp
	add	a,#0xfc
	mov	sp,a
	pop	ar5
	pop	ar4
	pop	ar3
	pop	ar2
;	genIfx
	mov	a,r6
;	genIfxJump
	jnz	00122$
	ljmp	00111$
00122$:
;	main.c:44: CKCON0 |= 0x01;
;	genOr
	orl	_CKCON0,#0x01
;	main.c:45: P1 &= 0x00;
;	genDummyRead
	mov	a,_P1
;	genAssign
	mov	_P1,#0x00
;	main.c:46: b = (sqrtf(PI))/(2 * powf(f1,(3/2)));
;	genCall
;	Peephole 182.b	used 16 bit load of dptr
	mov	dptr,#0x0FDB
	mov	b,#0x49
	mov	a,#0x40
	push	ar2
	push	ar3
	push	ar4
	push	ar5
	lcall	_sqrtf
	mov	_main_sloc0_1_0,dpl
	mov	(_main_sloc0_1_0 + 1),dph
	mov	(_main_sloc0_1_0 + 2),b
	mov	(_main_sloc0_1_0 + 3),a
	pop	ar5
	pop	ar4
	pop	ar3
	pop	ar2
;	genAssign
	mov	dptr,#_powf_PARM_2
;	Peephole 181	changed mov to clr
	clr	a
	movx	@dptr,a
	inc	dptr
;	Peephole 101	removed redundant mov
	movx	@dptr,a
	inc	dptr
	mov	a,#0x80
	movx	@dptr,a
	inc	dptr
	mov	a,#0x3F
	movx	@dptr,a
;	genCall
	mov	dpl,r2
	mov	dph,r3
	mov	b,r4
	mov	a,r5
	push	ar2
	push	ar3
	push	ar4
	push	ar5
	lcall	_powf
	mov	r6,dpl
	mov	r7,dph
	mov	r0,b
	mov	r1,a
	pop	ar5
	pop	ar4
	pop	ar3
	pop	ar2
;	genIpush
	push	ar2
	push	ar3
	push	ar4
	push	ar5
;	Peephole 181	changed mov to clr
	clr	a
	push	acc
	push	acc
	push	acc
	mov	a,#0x40
	push	acc
;	genCall
	mov	dpl,r6
	mov	dph,r7
	mov	b,r0
	mov	a,r1
	lcall	___fsmul
	mov	r6,dpl
	mov	r7,dph
	mov	r0,b
	mov	r1,a
	mov	a,sp
	add	a,#0xfc
	mov	sp,a
	pop	ar5
	pop	ar4
	pop	ar3
	pop	ar2
;	genIpush
	push	ar2
	push	ar3
	push	ar4
	push	ar5
	push	ar6
	push	ar7
	push	ar0
	push	ar1
;	main.c:47: P1 |= 0x01;
;	genCall
	mov	dpl,_main_sloc0_1_0
	mov	dph,(_main_sloc0_1_0 + 1)
	mov	b,(_main_sloc0_1_0 + 2)
	mov	a,(_main_sloc0_1_0 + 3)
	lcall	___fsdiv
	mov	r6,dpl
	mov	r7,dph
	mov	r0,b
	mov	r1,a
	mov	a,sp
	add	a,#0xfc
	mov	sp,a
	pop	ar5
	pop	ar4
	pop	ar3
	pop	ar2
;	genOr
	orl	_P1,#0x01
;	main.c:48: TH1 = 0xFA;
;	genAssign
	mov	_TH1,#0xFA
;	main.c:49: TR1 = 1;
;	genAssign
	setb	_TR1
;	main.c:50: printf_fast_f("The math operation gives us %f\n\r",b);
;	genIpush
	push	ar2
	push	ar3
	push	ar4
	push	ar5
	push	ar6
	push	ar7
	push	ar0
	push	ar1
;	genIpush
	mov	a,#__str_1
	push	acc
	mov	a,#(__str_1 >> 8)
	push	acc
;	genCall
	lcall	_printf_fast_f
	mov	a,sp
	add	a,#0xfa
	mov	sp,a
	pop	ar5
	pop	ar4
	pop	ar3
	pop	ar2
;	main.c:42: for(f1=1.5;f1<25;f1+=0.05)
;	genIpush
	mov	a,#0xCD
	push	acc
	mov	a,#0xCC
	push	acc
	mov	a,#0x4C
	push	acc
	mov	a,#0x3D
	push	acc
;	genCall
	mov	dpl,r2
	mov	dph,r3
	mov	b,r4
	mov	a,r5
	lcall	___fsadd
	mov	r2,dpl
	mov	r3,dph
	mov	r4,b
	mov	r5,a
	mov	a,sp
	add	a,#0xfc
	mov	sp,a
;	genAssign
	mov	dptr,#_main_f1_1_1
	mov	a,r2
	movx	@dptr,a
	inc	dptr
	mov	a,r3
	movx	@dptr,a
	inc	dptr
	mov	a,r4
	movx	@dptr,a
	inc	dptr
	mov	a,r5
	movx	@dptr,a
	ljmp	00108$
00111$:
;	main.c:52: printf_fast_f("Press reset to restart the program\n\r");
;	genIpush
	mov	a,#__str_3
	push	acc
	mov	a,#(__str_3 >> 8)
	push	acc
;	genCall
	lcall	_printf_fast_f
	dec	sp
	dec	sp
;	Peephole 300	removed redundant label 00112$
	ret
;------------------------------------------------------------
;Allocation info for local variables in function 'init'
;------------------------------------------------------------
;------------------------------------------------------------
;	main.c:56: void init()
;	-----------------------------------------
;	 function init
;	-----------------------------------------
_init:
;	main.c:58: SCON = 0x50;
;	genAssign
	mov	_SCON,#0x50
;	main.c:59: TMOD = 0x20;
;	genAssign
	mov	_TMOD,#0x20
;	main.c:60: TH1 = 0xFD;
;	genAssign
	mov	_TH1,#0xFD
;	main.c:61: TR1 = 1;
;	genAssign
	setb	_TR1
;	main.c:62: TI = 1;
;	genAssign
	setb	_TI
;	main.c:63: EA = 1;
;	genAssign
	setb	_EA
;	main.c:64: EX0 = 1;
;	genAssign
	setb	_EX0
;	main.c:65: IE = 0;
;	genAssign
	mov	_IE,#0x00
;	main.c:66: CKCON0 &= 0xFE;
;	genAnd
	anl	_CKCON0,#0xFE
;	Peephole 300	removed redundant label 00101$
	ret
;------------------------------------------------------------
;Allocation info for local variables in function 'init_high'
;------------------------------------------------------------
;------------------------------------------------------------
;	main.c:69: void init_high()
;	-----------------------------------------
;	 function init_high
;	-----------------------------------------
_init_high:
;	main.c:71: SCON = 0x50;
;	genAssign
	mov	_SCON,#0x50
;	main.c:72: TMOD = 0x20;
;	genAssign
	mov	_TMOD,#0x20
;	main.c:73: TH1 = 0xFA;
;	genAssign
	mov	_TH1,#0xFA
;	main.c:74: TR1 = 1;
;	genAssign
	setb	_TR1
;	main.c:75: TI = 1;
;	genAssign
	setb	_TI
;	main.c:76: EA = 1;
;	genAssign
	setb	_EA
;	main.c:77: EX0 = 1;
;	genAssign
	setb	_EX0
;	Peephole 300	removed redundant label 00101$
	ret
;------------------------------------------------------------
;Allocation info for local variables in function 'isr_zero'
;------------------------------------------------------------
;------------------------------------------------------------
;	main.c:81: void isr_zero(void) __interrupt (0)
;	-----------------------------------------
;	 function isr_zero
;	-----------------------------------------
_isr_zero:
;	main.c:83: }
;	Peephole 300	removed redundant label 00101$
	reti
;	eliminated unneeded push/pop psw
;	eliminated unneeded push/pop dpl
;	eliminated unneeded push/pop dph
;	eliminated unneeded push/pop b
;	eliminated unneeded push/pop acc
;------------------------------------------------------------
;Allocation info for local variables in function 'getchar'
;------------------------------------------------------------
;------------------------------------------------------------
;	main.c:85: char getchar()
;	-----------------------------------------
;	 function getchar
;	-----------------------------------------
_getchar:
;	main.c:87: while (!RI);                // compare asm code generated for these three lines
00101$:
;	genIfx
;	genIfxJump
;	Peephole 108.d	removed ljmp by inverse jump logic
;	main.c:88: RI = 0;			// clear RI flag
;	genAssign
;	Peephole 250.a	using atomic test and clear
	jbc	_RI,00108$
	sjmp	00101$
00108$:
;	main.c:89: return SBUF;  	// return character from SBUF
;	genAssign
	mov	r2,_SBUF
;	genRet
	mov	dpl,r2
;	Peephole 300	removed redundant label 00104$
	ret
;------------------------------------------------------------
;Allocation info for local variables in function 'putchar'
;------------------------------------------------------------
;c                         Allocated with name '_putchar_c_1_1'
;------------------------------------------------------------
;	main.c:93: void putchar (char c)
;	-----------------------------------------
;	 function putchar
;	-----------------------------------------
_putchar:
;	genReceive
	mov	a,dpl
	mov	dptr,#_putchar_c_1_1
	movx	@dptr,a
;	main.c:95: while (!TI);
00101$:
;	genIfx
;	genIfxJump
;	Peephole 108.d	removed ljmp by inverse jump logic
	jnb	_TI,00101$
;	Peephole 300	removed redundant label 00108$
;	main.c:96: SBUF = c;  	// load serial port with transmit value
;	genAssign
	mov	dptr,#_putchar_c_1_1
	movx	a,@dptr
	mov	_SBUF,a
;	main.c:97: TI = 0;  	// clear TI flag
;	genAssign
	clr	_TI
;	Peephole 300	removed redundant label 00104$
	ret
	.area CSEG    (CODE)
	.area CONST   (CODE)
__str_0:
	.ascii "Entered X1 mode a number"
	.db 0x0A
	.db 0x0D
	.db 0x00
__str_1:
	.ascii "The math operation gives us %f"
	.db 0x0A
	.db 0x0D
	.db 0x00
__str_2:
	.ascii "Provide an external interrupt INT0 to enter X2 mode"
	.db 0x0A
	.db 0x0D
	.db 0x00
__str_3:
	.ascii "Press reset to restart the program"
	.db 0x0A
	.db 0x0D
	.db 0x00
	.area XINIT   (CODE)
